
Memory Configuration

Name             Origin             Length             Attributes
*default*        0x0000000000000000 0xffffffffffffffff

Linker script and memory map

LOAD ./build/kernelfull.o
                0x0000000000100000                . = 0x100000

.text           0x0000000000100000     0x6f78
 *(.text)
 .text          0x0000000000100000     0x6f78 ./build/kernelfull.o
                0x0000000000100000                _start
                0x000000000010002e                kernel_registers
                0x0000000000100200                PANIC
                0x0000000000100380                timer_init
                0x0000000000100390                get_update_in_progress_flag
                0x00000000001003c0                get_RTC_register
                0x00000000001003f0                read_rtc
                0x00000000001007e0                getformattedtime
                0x0000000000100a40                gettime
                0x0000000000100aa0                printtime
                0x0000000000100b60                panic
                0x0000000000100b80                kernel_page
                0x0000000000100ba0                cas
                0x0000000000100bb0                kernel_main
                0x0000000000100da0                terminal_putchar
                0x0000000000100e30                terminal_backspace
                0x0000000000100ee0                terminal_writechar
                0x0000000000100fe0                enable_cursor
                0x0000000000101080                update_cursor
                0x0000000000101110                console_sync_cursor
                0x0000000000101180                terminal_panic
                0x00000000001011a0                terminal_initialize
                0x0000000000101340                print
                0x00000000001013a0                printc
                0x0000000000101400                checkIndent
                0x0000000000101430                printf
                0x0000000000101460                print_bool
                0x00000000001014a0                print_bin
                0x0000000000101500                print_hex
                0x0000000000101570                vprintf
                0x0000000000101830                dbg_putc
                0x0000000000101860                dbg_puts
                0x00000000001018a0                no_interrupt_handler
                0x00000000001018c0                interrupt_handler
                0x0000000000101920                idt_zero
                0x0000000000101940                idt_set
                0x0000000000101990                idt_handle_exception
                0x00000000001019a0                idt_clock
                0x00000000001019d0                pit_sleep
                0x0000000000101a10                set_frequency
                0x0000000000101a80                idt_init
                0x0000000000101b60                idt_register_interrupt_callback
                0x0000000000101b90                isr80h_register_command
                0x0000000000101c00                isr80h_handle_command
                0x0000000000101c60                isr80h_handler
                0x0000000000101cb0                memset
                0x0000000000101cf0                memcmp
                0x0000000000101d70                memcpy
                0x0000000000101e90                elf_memory
                0x0000000000101ea0                elf_header
                0x0000000000101eb0                elf_sheader
                0x0000000000101ec0                elf_pheader
                0x0000000000101ee0                elf_program_header
                0x0000000000101f00                elf_section
                0x0000000000101f20                elf_phdr_phys_address
                0x0000000000101f40                elf_str_table
                0x0000000000101f70                elf_virtual_base
                0x0000000000101f80                elf_virtual_end
                0x0000000000101f90                elf_phys_base
                0x0000000000101fa0                elf_phys_end
                0x0000000000101fb0                elf_validate_loaded
                0x0000000000102010                elf_process_phdr_pt_load
                0x00000000001020d0                elf_process_pheader
                0x0000000000102110                elf_process_pheaders
                0x0000000000102190                elf_process_loaded
                0x00000000001021f0                elf_load
                0x00000000001022f0                elf_close
                0x0000000000102330                elf_get_entry_ptr
                0x0000000000102340                elf_get_entry
                0x0000000000102350                encodeGdtEntry
                0x0000000000102450                gdt_structured_to_gdt
                0x0000000000102510                heap_create
                0x0000000000102620                heap_get_start_block
                0x00000000001026c0                heap_block_to_address
                0x00000000001026e0                heap_mark_blocks_taken
                0x0000000000102750                heap_malloc_blocks
                0x00000000001027b0                heap_mark_blocks_free
                0x0000000000102810                heap_address_to_block
                0x0000000000102830                heap_malloc
                0x0000000000102870                heap_free
                0x0000000000102890                kheap_init
                0x0000000000102900                kmalloc
                0x0000000000102920                kzalloc
                0x0000000000102970                kfree
                0x0000000000102990                paging_new_4gb
                0x0000000000102a80                paging_switch
                0x0000000000102ab0                paging_free_4gb
                0x0000000000102b30                paging_4gb_chunk_get_directory
                0x0000000000102b40                paging_is_aligned
                0x0000000000102b50                paging_get_indexes
                0x0000000000102bb0                paging_align_address
                0x0000000000102be0                paging_align_to_lower_page
                0x0000000000102c00                paging_map
                0x0000000000102c50                paging_map_range
                0x0000000000102cc0                paging_map_to
                0x0000000000102d70                paging_set
                0x0000000000102e10                paging_get_physical_address
                0x0000000000102e60                paging_get
                0x0000000000102ec0                isr80h_register_commands
                0x0000000000102f90                isr80h_command4_malloc
                0x0000000000102fd0                isr80h_command5_free
                0x0000000000103010                keyboard_init
                0x0000000000103030                keyboard_insert
                0x00000000001030b0                keyboard_backspace
                0x0000000000103100                keyboard_set_capslock
                0x0000000000103110                keyboard_get_capslock
                0x0000000000103120                keyboard_push
                0x0000000000103190                keyboard_pop
                0x0000000000103220                classic_keyboard_init
                0x0000000000103270                classic_keyboard_scancode_to_char
                0x00000000001032e0                classic_keyboard_handle_interrupt
                0x0000000000103380                keyboard_toggle_capslock
                0x00000000001033c0                classic_init
                0x00000000001033d0                isr80h_command1_print
                0x0000000000103430                isr80h_command11_printc
                0x00000000001034e0                isr80h_command2_getkey
                0x0000000000103500                isr80h_command3_putchar
                0x0000000000103540                isr80h_command6_process_load_start
                0x0000000000103630                isr80h_command7_invoke_system_command
                0x0000000000103750                isr80h_command8_get_program_arguments
                0x00000000001037c0                isr80h_command9_exit
                0x00000000001037f0                isr80h_command0_sum
                0x0000000000103830                disk_read_sector
                0x0000000000103960                disk_search_and_init
                0x00000000001039b0                disk_get
                0x00000000001039d0                disk_read_block
                0x0000000000103a00                diskstreamer_new
                0x0000000000103a60                diskstreamer_seek
                0x0000000000103a70                diskstreamer_read
                0x0000000000103c00                diskstreamer_close
                0x0000000000103c40                process_current
                0x0000000000103c50                process_get
                0x0000000000103c70                process_switch
                0x0000000000103cd0                process_malloc
                0x0000000000103eb0                process_free
                0x0000000000103f50                process_terminate_allocation
                0x0000000000103fa0                process_free_binary_data
                0x0000000000103fd0                process_free_elf_data
                0x0000000000104000                process_free_program_data
                0x0000000000104060                process_switch_to_any
                0x00000000001040f0                process_terminate
                0x0000000000104190                process_get_arguments
                0x00000000001041c0                process_count_command_arguments
                0x0000000000104200                process_inject_arguments
                0x00000000001044d0                process_map_binary
                0x0000000000104650                process_map_memory
                0x0000000000104710                process_get_free_slot
                0x0000000000104750                process_load
                0x00000000001047a0                process_load_switch
                0x00000000001047e0                process_load_for_slot
                0x0000000000104970                task_current
                0x0000000000104980                task_new
                0x0000000000104a70                task_get_next
                0x0000000000104b00                task_free
                0x0000000000104b40                task_next
                0x0000000000104ba0                task_switch
                0x0000000000104bd0                task_save_state
                0x0000000000104c80                copy_string_from_task
                0x0000000000104d90                task_current_save_state
                0x0000000000104de0                task_page
                0x0000000000104e10                task_page_task
                0x0000000000104e40                task_run_first_ever_task
                0x0000000000104e90                task_init
                0x0000000000104f40                task_get_stack_item
                0x0000000000104f90                task_virtual_address_to_physical
                0x0000000000105170                pathparser_parse_path_part
                0x00000000001051e0                pathparser_free
                0x0000000000105240                pathparser_parse
                0x0000000000105370                fs_insert_filesystem
                0x00000000001053d0                fs_load
                0x0000000000105400                fs_init
                0x0000000000105520                fs_resolve
                0x0000000000105590                file_get_mode_by_string
                0x0000000000105610                fopen
                0x0000000000105770                fstat
                0x00000000001057d0                fclose
                0x0000000000105840                fseek
                0x00000000001058a0                fread
                0x0000000000105930                fat16_init
                0x00000000001059d0                fat16_sector_to_absolute
                0x00000000001059e0                fat16_get_total_items_for_directory
                0x0000000000105aa0                fat16_get_root_directory
                0x0000000000105c30                fat16_resolve
                0x0000000000105d40                fat16_to_proper_string
                0x0000000000105db0                fat16_get_full_relative_filename
                0x0000000000105e30                fat_16_clone_directory_item
                0x0000000000106210                fat16_free_directory
                0x0000000000106250                fat16_fat_item_free
                0x00000000001062b0                fat16_load_fat_directory
                0x00000000001063e0                fat16_new_fat_item_for_directory_item
                0x0000000000106470                fat16_find_item_in_directory
                0x0000000000106520                fat16_get_directory_entry
                0x00000000001065e0                fat16_open
                0x00000000001066c0                fat16_close
                0x00000000001066e0                fat16_stat
                0x0000000000106760                fat16_read
                0x0000000000106810                fat16_seek
                0x00000000001068c0                tolower
                0x00000000001068f0                strlen
                0x0000000000106920                strnlen
                0x0000000000106960                strnlen_terminator
                0x00000000001069b0                istrncmp
                0x0000000000106a50                strncmp
                0x0000000000106ac0                strcpy
                0x0000000000106b00                strncpy
                0x0000000000106b70                strstr
                0x0000000000106bc0                strchr
                0x0000000000106bf0                strcat
                0x0000000000106c40                isdigit
                0x0000000000106c70                tonumericdigit
                0x0000000000106c90                itoa
                0x0000000000106d60                itoa_hex
                0x0000000000106e30                atoi
                0x0000000000106e90                snprintf
                0x0000000000106ec0                sprintf
                0x0000000000106ef0                vsnprintf
                0x0000000000106f50                vsprintf

.asm            0x0000000000107000     0x2183
 *(.asm)
 .asm           0x0000000000107000     0x2183 ./build/kernelfull.o
                0x0000000000107000                IRQ_OFF
                0x0000000000107001                IRQ_RES
                0x0000000000107002                PAUSE
                0x0000000000107003                IRQ_ON_AND_PAUSE
                0x0000000000107006                enable_interrupts
                0x0000000000107008                disable_interrupts
                0x000000000010700a                idt_load
                0x0000000000107015                no_interrupt
                0x000000000010701d                int0
                0x000000000010702b                int1
                0x0000000000107039                int2
                0x0000000000107047                int3
                0x0000000000107055                int4
                0x0000000000107063                int5
                0x0000000000107071                int6
                0x000000000010707f                int7
                0x000000000010708d                int8
                0x000000000010709b                int9
                0x00000000001070a9                int10
                0x00000000001070b7                int11
                0x00000000001070c5                int12
                0x00000000001070d3                int13
                0x00000000001070e1                int14
                0x00000000001070ef                int15
                0x00000000001070fd                int16
                0x000000000010710b                int17
                0x0000000000107119                int18
                0x0000000000107127                int19
                0x0000000000107135                int20
                0x0000000000107143                int21
                0x0000000000107151                int22
                0x000000000010715f                int23
                0x000000000010716d                int24
                0x000000000010717b                int25
                0x0000000000107189                int26
                0x0000000000107197                int27
                0x00000000001071a5                int28
                0x00000000001071b3                int29
                0x00000000001071c1                int30
                0x00000000001071cf                int31
                0x00000000001071dd                int32
                0x00000000001071eb                int33
                0x00000000001071f9                int34
                0x0000000000107207                int35
                0x0000000000107215                int36
                0x0000000000107223                int37
                0x0000000000107231                int38
                0x000000000010723f                int39
                0x000000000010724d                int40
                0x000000000010725b                int41
                0x0000000000107269                int42
                0x0000000000107277                int43
                0x0000000000107285                int44
                0x0000000000107293                int45
                0x00000000001072a1                int46
                0x00000000001072af                int47
                0x00000000001072bd                int48
                0x00000000001072cb                int49
                0x00000000001072d9                int50
                0x00000000001072e7                int51
                0x00000000001072f5                int52
                0x0000000000107303                int53
                0x0000000000107311                int54
                0x000000000010731f                int55
                0x000000000010732d                int56
                0x000000000010733b                int57
                0x0000000000107349                int58
                0x0000000000107357                int59
                0x0000000000107365                int60
                0x0000000000107373                int61
                0x0000000000107381                int62
                0x000000000010738f                int63
                0x000000000010739d                int64
                0x00000000001073ab                int65
                0x00000000001073b9                int66
                0x00000000001073c7                int67
                0x00000000001073d5                int68
                0x00000000001073e3                int69
                0x00000000001073f1                int70
                0x00000000001073ff                int71
                0x000000000010740d                int72
                0x000000000010741b                int73
                0x0000000000107429                int74
                0x0000000000107437                int75
                0x0000000000107445                int76
                0x0000000000107453                int77
                0x0000000000107461                int78
                0x000000000010746f                int79
                0x000000000010747d                int80
                0x000000000010748b                int81
                0x0000000000107499                int82
                0x00000000001074a7                int83
                0x00000000001074b5                int84
                0x00000000001074c3                int85
                0x00000000001074d1                int86
                0x00000000001074df                int87
                0x00000000001074ed                int88
                0x00000000001074fb                int89
                0x0000000000107509                int90
                0x0000000000107517                int91
                0x0000000000107525                int92
                0x0000000000107533                int93
                0x0000000000107541                int94
                0x000000000010754f                int95
                0x000000000010755d                int96
                0x000000000010756b                int97
                0x0000000000107579                int98
                0x0000000000107587                int99
                0x0000000000107595                int100
                0x00000000001075a3                int101
                0x00000000001075b1                int102
                0x00000000001075bf                int103
                0x00000000001075cd                int104
                0x00000000001075db                int105
                0x00000000001075e9                int106
                0x00000000001075f7                int107
                0x0000000000107605                int108
                0x0000000000107613                int109
                0x0000000000107621                int110
                0x000000000010762f                int111
                0x000000000010763d                int112
                0x000000000010764b                int113
                0x0000000000107659                int114
                0x0000000000107667                int115
                0x0000000000107675                int116
                0x0000000000107683                int117
                0x0000000000107691                int118
                0x000000000010769f                int119
                0x00000000001076ad                int120
                0x00000000001076bb                int121
                0x00000000001076c9                int122
                0x00000000001076d7                int123
                0x00000000001076e5                int124
                0x00000000001076f3                int125
                0x0000000000107701                int126
                0x000000000010770f                int127
                0x000000000010771d                int128
                0x000000000010772e                int129
                0x000000000010773f                int130
                0x0000000000107750                int131
                0x0000000000107761                int132
                0x0000000000107772                int133
                0x0000000000107783                int134
                0x0000000000107794                int135
                0x00000000001077a5                int136
                0x00000000001077b6                int137
                0x00000000001077c7                int138
                0x00000000001077d8                int139
                0x00000000001077e9                int140
                0x00000000001077fa                int141
                0x000000000010780b                int142
                0x000000000010781c                int143
                0x000000000010782d                int144
                0x000000000010783e                int145
                0x000000000010784f                int146
                0x0000000000107860                int147
                0x0000000000107871                int148
                0x0000000000107882                int149
                0x0000000000107893                int150
                0x00000000001078a4                int151
                0x00000000001078b5                int152
                0x00000000001078c6                int153
                0x00000000001078d7                int154
                0x00000000001078e8                int155
                0x00000000001078f9                int156
                0x000000000010790a                int157
                0x000000000010791b                int158
                0x000000000010792c                int159
                0x000000000010793d                int160
                0x000000000010794e                int161
                0x000000000010795f                int162
                0x0000000000107970                int163
                0x0000000000107981                int164
                0x0000000000107992                int165
                0x00000000001079a3                int166
                0x00000000001079b4                int167
                0x00000000001079c5                int168
                0x00000000001079d6                int169
                0x00000000001079e7                int170
                0x00000000001079f8                int171
                0x0000000000107a09                int172
                0x0000000000107a1a                int173
                0x0000000000107a2b                int174
                0x0000000000107a3c                int175
                0x0000000000107a4d                int176
                0x0000000000107a5e                int177
                0x0000000000107a6f                int178
                0x0000000000107a80                int179
                0x0000000000107a91                int180
                0x0000000000107aa2                int181
                0x0000000000107ab3                int182
                0x0000000000107ac4                int183
                0x0000000000107ad5                int184
                0x0000000000107ae6                int185
                0x0000000000107af7                int186
                0x0000000000107b08                int187
                0x0000000000107b19                int188
                0x0000000000107b2a                int189
                0x0000000000107b3b                int190
                0x0000000000107b4c                int191
                0x0000000000107b5d                int192
                0x0000000000107b6e                int193
                0x0000000000107b7f                int194
                0x0000000000107b90                int195
                0x0000000000107ba1                int196
                0x0000000000107bb2                int197
                0x0000000000107bc3                int198
                0x0000000000107bd4                int199
                0x0000000000107be5                int200
                0x0000000000107bf6                int201
                0x0000000000107c07                int202
                0x0000000000107c18                int203
                0x0000000000107c29                int204
                0x0000000000107c3a                int205
                0x0000000000107c4b                int206
                0x0000000000107c5c                int207
                0x0000000000107c6d                int208
                0x0000000000107c7e                int209
                0x0000000000107c8f                int210
                0x0000000000107ca0                int211
                0x0000000000107cb1                int212
                0x0000000000107cc2                int213
                0x0000000000107cd3                int214
                0x0000000000107ce4                int215
                0x0000000000107cf5                int216
                0x0000000000107d06                int217
                0x0000000000107d17                int218
                0x0000000000107d28                int219
                0x0000000000107d39                int220
                0x0000000000107d4a                int221
                0x0000000000107d5b                int222
                0x0000000000107d6c                int223
                0x0000000000107d7d                int224
                0x0000000000107d8e                int225
                0x0000000000107d9f                int226
                0x0000000000107db0                int227
                0x0000000000107dc1                int228
                0x0000000000107dd2                int229
                0x0000000000107de3                int230
                0x0000000000107df4                int231
                0x0000000000107e05                int232
                0x0000000000107e16                int233
                0x0000000000107e27                int234
                0x0000000000107e38                int235
                0x0000000000107e49                int236
                0x0000000000107e5a                int237
                0x0000000000107e6b                int238
                0x0000000000107e7c                int239
                0x0000000000107e8d                int240
                0x0000000000107e9e                int241
                0x0000000000107eaf                int242
                0x0000000000107ec0                int243
                0x0000000000107ed1                int244
                0x0000000000107ee2                int245
                0x0000000000107ef3                int246
                0x0000000000107f04                int247
                0x0000000000107f15                int248
                0x0000000000107f26                int249
                0x0000000000107f37                int250
                0x0000000000107f48                int251
                0x0000000000107f59                int252
                0x0000000000107f6a                int253
                0x0000000000107f7b                int254
                0x0000000000107f8c                int255
                0x0000000000107f9d                int256
                0x0000000000107fae                int257
                0x0000000000107fbf                int258
                0x0000000000107fd0                int259
                0x0000000000107fe1                int260
                0x0000000000107ff2                int261
                0x0000000000108003                int262
                0x0000000000108014                int263
                0x0000000000108025                int264
                0x0000000000108036                int265
                0x0000000000108047                int266
                0x0000000000108058                int267
                0x0000000000108069                int268
                0x000000000010807a                int269
                0x000000000010808b                int270
                0x000000000010809c                int271
                0x00000000001080ad                int272
                0x00000000001080be                int273
                0x00000000001080cf                int274
                0x00000000001080e0                int275
                0x00000000001080f1                int276
                0x0000000000108102                int277
                0x0000000000108113                int278
                0x0000000000108124                int279
                0x0000000000108135                int280
                0x0000000000108146                int281
                0x0000000000108157                int282
                0x0000000000108168                int283
                0x0000000000108179                int284
                0x000000000010818a                int285
                0x000000000010819b                int286
                0x00000000001081ac                int287
                0x00000000001081bd                int288
                0x00000000001081ce                int289
                0x00000000001081df                int290
                0x00000000001081f0                int291
                0x0000000000108201                int292
                0x0000000000108212                int293
                0x0000000000108223                int294
                0x0000000000108234                int295
                0x0000000000108245                int296
                0x0000000000108256                int297
                0x0000000000108267                int298
                0x0000000000108278                int299
                0x0000000000108289                int300
                0x000000000010829a                int301
                0x00000000001082ab                int302
                0x00000000001082bc                int303
                0x00000000001082cd                int304
                0x00000000001082de                int305
                0x00000000001082ef                int306
                0x0000000000108300                int307
                0x0000000000108311                int308
                0x0000000000108322                int309
                0x0000000000108333                int310
                0x0000000000108344                int311
                0x0000000000108355                int312
                0x0000000000108366                int313
                0x0000000000108377                int314
                0x0000000000108388                int315
                0x0000000000108399                int316
                0x00000000001083aa                int317
                0x00000000001083bb                int318
                0x00000000001083cc                int319
                0x00000000001083dd                int320
                0x00000000001083ee                int321
                0x00000000001083ff                int322
                0x0000000000108410                int323
                0x0000000000108421                int324
                0x0000000000108432                int325
                0x0000000000108443                int326
                0x0000000000108454                int327
                0x0000000000108465                int328
                0x0000000000108476                int329
                0x0000000000108487                int330
                0x0000000000108498                int331
                0x00000000001084a9                int332
                0x00000000001084ba                int333
                0x00000000001084cb                int334
                0x00000000001084dc                int335
                0x00000000001084ed                int336
                0x00000000001084fe                int337
                0x000000000010850f                int338
                0x0000000000108520                int339
                0x0000000000108531                int340
                0x0000000000108542                int341
                0x0000000000108553                int342
                0x0000000000108564                int343
                0x0000000000108575                int344
                0x0000000000108586                int345
                0x0000000000108597                int346
                0x00000000001085a8                int347
                0x00000000001085b9                int348
                0x00000000001085ca                int349
                0x00000000001085db                int350
                0x00000000001085ec                int351
                0x00000000001085fd                int352
                0x000000000010860e                int353
                0x000000000010861f                int354
                0x0000000000108630                int355
                0x0000000000108641                int356
                0x0000000000108652                int357
                0x0000000000108663                int358
                0x0000000000108674                int359
                0x0000000000108685                int360
                0x0000000000108696                int361
                0x00000000001086a7                int362
                0x00000000001086b8                int363
                0x00000000001086c9                int364
                0x00000000001086da                int365
                0x00000000001086eb                int366
                0x00000000001086fc                int367
                0x000000000010870d                int368
                0x000000000010871e                int369
                0x000000000010872f                int370
                0x0000000000108740                int371
                0x0000000000108751                int372
                0x0000000000108762                int373
                0x0000000000108773                int374
                0x0000000000108784                int375
                0x0000000000108795                int376
                0x00000000001087a6                int377
                0x00000000001087b7                int378
                0x00000000001087c8                int379
                0x00000000001087d9                int380
                0x00000000001087ea                int381
                0x00000000001087fb                int382
                0x000000000010880c                int383
                0x000000000010881d                int384
                0x000000000010882e                int385
                0x000000000010883f                int386
                0x0000000000108850                int387
                0x0000000000108861                int388
                0x0000000000108872                int389
                0x0000000000108883                int390
                0x0000000000108894                int391
                0x00000000001088a5                int392
                0x00000000001088b6                int393
                0x00000000001088c7                int394
                0x00000000001088d8                int395
                0x00000000001088e9                int396
                0x00000000001088fa                int397
                0x000000000010890b                int398
                0x000000000010891c                int399
                0x000000000010892d                int400
                0x000000000010893e                int401
                0x000000000010894f                int402
                0x0000000000108960                int403
                0x0000000000108971                int404
                0x0000000000108982                int405
                0x0000000000108993                int406
                0x00000000001089a4                int407
                0x00000000001089b5                int408
                0x00000000001089c6                int409
                0x00000000001089d7                int410
                0x00000000001089e8                int411
                0x00000000001089f9                int412
                0x0000000000108a0a                int413
                0x0000000000108a1b                int414
                0x0000000000108a2c                int415
                0x0000000000108a3d                int416
                0x0000000000108a4e                int417
                0x0000000000108a5f                int418
                0x0000000000108a70                int419
                0x0000000000108a81                int420
                0x0000000000108a92                int421
                0x0000000000108aa3                int422
                0x0000000000108ab4                int423
                0x0000000000108ac5                int424
                0x0000000000108ad6                int425
                0x0000000000108ae7                int426
                0x0000000000108af8                int427
                0x0000000000108b09                int428
                0x0000000000108b1a                int429
                0x0000000000108b2b                int430
                0x0000000000108b3c                int431
                0x0000000000108b4d                int432
                0x0000000000108b5e                int433
                0x0000000000108b6f                int434
                0x0000000000108b80                int435
                0x0000000000108b91                int436
                0x0000000000108ba2                int437
                0x0000000000108bb3                int438
                0x0000000000108bc4                int439
                0x0000000000108bd5                int440
                0x0000000000108be6                int441
                0x0000000000108bf7                int442
                0x0000000000108c08                int443
                0x0000000000108c19                int444
                0x0000000000108c2a                int445
                0x0000000000108c3b                int446
                0x0000000000108c4c                int447
                0x0000000000108c5d                int448
                0x0000000000108c6e                int449
                0x0000000000108c7f                int450
                0x0000000000108c90                int451
                0x0000000000108ca1                int452
                0x0000000000108cb2                int453
                0x0000000000108cc3                int454
                0x0000000000108cd4                int455
                0x0000000000108ce5                int456
                0x0000000000108cf6                int457
                0x0000000000108d07                int458
                0x0000000000108d18                int459
                0x0000000000108d29                int460
                0x0000000000108d3a                int461
                0x0000000000108d4b                int462
                0x0000000000108d5c                int463
                0x0000000000108d6d                int464
                0x0000000000108d7e                int465
                0x0000000000108d8f                int466
                0x0000000000108da0                int467
                0x0000000000108db1                int468
                0x0000000000108dc2                int469
                0x0000000000108dd3                int470
                0x0000000000108de4                int471
                0x0000000000108df5                int472
                0x0000000000108e06                int473
                0x0000000000108e17                int474
                0x0000000000108e28                int475
                0x0000000000108e39                int476
                0x0000000000108e4a                int477
                0x0000000000108e5b                int478
                0x0000000000108e6c                int479
                0x0000000000108e7d                int480
                0x0000000000108e8e                int481
                0x0000000000108e9f                int482
                0x0000000000108eb0                int483
                0x0000000000108ec1                int484
                0x0000000000108ed2                int485
                0x0000000000108ee3                int486
                0x0000000000108ef4                int487
                0x0000000000108f05                int488
                0x0000000000108f16                int489
                0x0000000000108f27                int490
                0x0000000000108f38                int491
                0x0000000000108f49                int492
                0x0000000000108f5a                int493
                0x0000000000108f6b                int494
                0x0000000000108f7c                int495
                0x0000000000108f8d                int496
                0x0000000000108f9e                int497
                0x0000000000108faf                int498
                0x0000000000108fc0                int499
                0x0000000000108fd1                int500
                0x0000000000108fe2                int501
                0x0000000000108ff3                int502
                0x0000000000109004                int503
                0x0000000000109015                int504
                0x0000000000109026                int505
                0x0000000000109037                int506
                0x0000000000109048                int507
                0x0000000000109059                int508
                0x000000000010906a                int509
                0x000000000010907b                int510
                0x000000000010908c                int511
                0x000000000010909d                isr80h_wrapper
                0x00000000001090b4                insb
                0x00000000001090bf                insw
                0x00000000001090cb                outb
                0x00000000001090d7                outw
                0x00000000001090e4                gdt_load
                0x0000000000109100                paging_load_directory
                0x000000000010910b                enable_paging
                0x000000000010911b                task_return
                0x000000000010914c                restore_general_purpose_registers
                0x000000000010916a                user_registers
                0x0000000000109177                tss_load

.rodata         0x000000000010a000      0x2ee
 *(.rodata)
 .rodata        0x000000000010a000      0x2ee ./build/kernelfull.o
                0x000000000010a17c                elf_signature

.data           0x000000000010b000     0x12ac
 *(.data)
 .data          0x000000000010b000     0x12ac ./build/kernelfull.o
                0x000000000010b000                whatToDo
                0x000000000010b7a0                timezone_offset
                0x000000000010b7c0                gdt_structured
                0x000000000010b80c                interrupt_pointer_table
                0x000000000010c260                classic_keyboard
                0x000000000010c280                fat16_fs

.bss            0x000000000010d000     0x324c
 *(COMMON)
 *(.bss)
 .bss           0x000000000010d000     0x324c ./build/kernelfull.o
                0x000000000010d00c                jiffies
                0x000000000010d010                hz
                0x000000000010d014                wakeup_list
                0x000000000010d020                century_register
                0x000000000010d024                second
                0x000000000010d025                minute
                0x000000000010d026                hour
                0x000000000010d027                day
                0x000000000010d028                month
                0x000000000010d02c                year
                0x000000000010d040                tss
                0x000000000010d0c0                gdt_real
                0x000000000010d100                terminal_count
                0x000000000010d120                idt_descriptors
                0x000000000010e120                idtr_descriptor
                0x000000000010f948                kernel_heap
                0x000000000010f950                kernel_heap_table
                0x000000000010f974                disk
                0x000000000010f9a0                current_process
                0x000000000010f9f0                current_task
                0x000000000010f9f4                task_tail
                0x000000000010f9f8                task_head
                0x000000000010fa00                filesystems
                0x000000000010fa40                file_descriptors
OUTPUT(./bin/kernel.bin binary)

.stab           0x0000000000000000      0x1b0
 .stab          0x0000000000000000      0x1b0 ./build/kernelfull.o

.stabstr        0x0000000000000000       0x15
 .stabstr       0x0000000000000000       0x15 ./build/kernelfull.o

.comment        0x0000000000000000      0x201
 .comment       0x0000000000000000      0x201 ./build/kernelfull.o

.debug_aranges  0x0000000000000000      0x360
 .debug_aranges
                0x0000000000000000      0x360 ./build/kernelfull.o

.debug_info     0x0000000000000000     0xa122
 .debug_info    0x0000000000000000     0xa122 ./build/kernelfull.o

.debug_abbrev   0x0000000000000000     0x2f53
 .debug_abbrev  0x0000000000000000     0x2f53 ./build/kernelfull.o

.debug_line     0x0000000000000000     0x350f
 .debug_line    0x0000000000000000     0x350f ./build/kernelfull.o

.debug_frame    0x0000000000000000     0x2f60
 .debug_frame   0x0000000000000000     0x2f60 ./build/kernelfull.o

.debug_str      0x0000000000000000     0x69af
 .debug_str     0x0000000000000000     0x69af ./build/kernelfull.o

.debug_line_str
                0x0000000000000000     0x2169
 .debug_line_str
                0x0000000000000000     0x2169 ./build/kernelfull.o

.debug_rnglists
                0x0000000000000000       0x67
 .debug_rnglists
                0x0000000000000000       0x67 ./build/kernelfull.o
